; Function Attrs: mustprogress nounwind uwtable
define dso_local void @_ZN4llvm23ConvergingVLIWScheduler17VLIWSchedBoundary9bumpCycleEv(ptr nocapture noundef nonnull align 8 dereferenceable(188) %0) local_unnamed_addr #0 align 2 {
  %2 = getelementptr inbounds nuw i8, ptr %0, i64 8
  %3 = load ptr, ptr %2, align 8
  %4 = load i32, ptr %3, align 8
  %5 = getelementptr inbounds nuw i8, ptr %0, i64 172
  %6 = load i32, ptr %5, align 4
  %spec.select = tail call i32 @llvm.usub.sat.i32(i32 %6, i32 %4)
  store i32 %spec.select, ptr %5, align 4
  %7 = getelementptr inbounds nuw i8, ptr %0, i64 168
  %8 = load i32, ptr %7, align 8
  %9 = add i32 %8, 1
  %10 = getelementptr inbounds nuw i8, ptr %0, i64 180
  %11 = load i32, ptr %10, align 4
  %.sroa.speculated = tail call i32 @llvm.umax.i32(i32 %9, i32 %11)
  %12 = getelementptr inbounds nuw i8, ptr %0, i64 152
  %13 = load ptr, ptr %12, align 8
  %14 = getelementptr inbounds nuw i8, ptr %13, i64 8
  %15 = load i32, ptr %14, align 8
  %.not = icmp eq i32 %15, 0
  br i1 %.not, label %17, label %.preheader

.preheader:                                       ; preds = %1
  %.not57 = icmp eq i32 %8, %.sroa.speculated
  br i1 %.not57, label %.loopexit, label %.lr.ph

.lr.ph:                                           ; preds = %.preheader
  %16 = getelementptr inbounds nuw i8, ptr %0, i64 16
  br label %18

17:                                               ; preds = %1
  store i32 %.sroa.speculated, ptr %7, align 8
  br label %.loopexit

18:                                               ; preds = %.lr.ph, %18
  %19 = load i32, ptr %16, align 8
  %20 = icmp eq i32 %19, 1
  %21 = load ptr, ptr %12, align 8
  %22 = load ptr, ptr %21, align 8
  %. = select i1 %20, i64 80, i64 88
  %23 = getelementptr inbounds i8, ptr %22, i64 %.
  %24 = load ptr, ptr %23, align 8
  tail call void %24(ptr noundef nonnull align 8 dereferenceable(12) %21) #15
  %25 = load i32, ptr %7, align 8
  %26 = add i32 %25, 1
  store i32 %26, ptr %7, align 8
  %.not5 = icmp eq i32 %26, %.sroa.speculated
  br i1 %.not5, label %.loopexit, label %18, !llvm.loop !9

.loopexit:                                        ; preds = %18, %.preheader, %17
  %27 = getelementptr inbounds nuw i8, ptr %0, i64 144
  store i8 1, ptr %27, align 8
  ret void
}